; Listing generated by Microsoft (R) Optimizing Compiler Version 19.44.35222.0 

include listing.inc

INCLUDELIB LIBCMT
INCLUDELIB OLDNAMES

PUBLIC	?test_div128@@YA?AT__m128i@@T1@0@Z		; test_div128
PUBLIC	?test_div256@@YA?AT__m256i@@T1@0@Z		; test_div256
PUBLIC	main
EXTRN	__vdecl_i32div4:PROC
EXTRN	__vdecl_i32div8:PROC
; Function compile flags: /Ogtpy
; File Q:\Maths Town Code Projects\SIMD\Temp\msvc_svml_probe.cpp
;	COMDAT main
_TEXT	SEGMENT
main	PROC						; COMDAT

; 13   :     __m128i a = _mm_set_epi32(40, 30, 20, 10);
; 14   :     __m128i b = _mm_set_epi32(4, 3, 2, 1);
; 15   :     __m128i c = test_div128(a,b);
; 16   :     (void)c;
; 17   : 
; 18   :     __m256i a2 = _mm256_set_epi32(80,70,60,50,40,30,20,10);
; 19   :     __m256i b2 = _mm256_set_epi32(8,7,6,5,4,3,2,1);
; 20   :     __m256i c2 = test_div256(a2,b2);
; 21   :     (void)c2;
; 22   :     return 0;

  00000	33 c0		 xor	 eax, eax

; 23   : }

  00002	c3		 ret	 0
main	ENDP
_TEXT	ENDS
; Function compile flags: /Ogtpy
; File Q:\Maths Town Code Projects\SIMD\Temp\msvc_svml_probe.cpp
;	COMDAT ?test_div256@@YA?AT__m256i@@T1@0@Z
_TEXT	SEGMENT
a$ = 8
b$ = 16
?test_div256@@YA?AT__m256i@@T1@0@Z PROC			; test_div256, COMDAT

; 9    :     return _mm256_div_epi32(a, b);

  00000	c5 fe 6f 0a	 vmovdqu ymm1, YMMWORD PTR [rdx]
  00004	c5 fe 6f 01	 vmovdqu ymm0, YMMWORD PTR [rcx]
  00008	e9 00 00 00 00	 jmp	 __vdecl_i32div8
?test_div256@@YA?AT__m256i@@T1@0@Z ENDP			; test_div256
_TEXT	ENDS
; Function compile flags: /Ogtpy
; File Q:\Maths Town Code Projects\SIMD\Temp\msvc_svml_probe.cpp
;	COMDAT ?test_div128@@YA?AT__m128i@@T1@0@Z
_TEXT	SEGMENT
a$ = 8
b$ = 16
?test_div128@@YA?AT__m128i@@T1@0@Z PROC			; test_div128, COMDAT

; 5    :     return _mm_div_epi32(a, b);

  00000	c5 fa 6f 0a	 vmovdqu xmm1, XMMWORD PTR [rdx]
  00004	c5 fa 6f 01	 vmovdqu xmm0, XMMWORD PTR [rcx]
  00008	e9 00 00 00 00	 jmp	 __vdecl_i32div4
?test_div128@@YA?AT__m128i@@T1@0@Z ENDP			; test_div128
_TEXT	ENDS
END
