; Listing generated by Microsoft (R) Optimizing Compiler Version 19.44.35222.0 

include listing.inc

INCLUDELIB LIBCMT
INCLUDELIB OLDNAMES

PUBLIC	?g_sink@@3HC					; g_sink
_BSS	SEGMENT
?g_sink@@3HC DD	01H DUP (?)				; g_sink
_BSS	ENDS
PUBLIC	main
PUBLIC	__xmm@00000004000000030000000200000001
PUBLIC	__xmm@000000280000001e000000140000000a
PUBLIC	__ymm@0000000800000007000000060000000500000004000000030000000200000001
PUBLIC	__ymm@00000050000000460000003c00000032000000280000001e000000140000000a
EXTRN	__vdecl_i32div4:PROC
EXTRN	__vdecl_i32div8:PROC
;	COMDAT pdata
pdata	SEGMENT
$pdata$main DD	imagerel $LN4
	DD	imagerel $LN4+79
	DD	imagerel $unwind$main
pdata	ENDS
;	COMDAT __ymm@00000050000000460000003c00000032000000280000001e000000140000000a
CONST	SEGMENT
__ymm@00000050000000460000003c00000032000000280000001e000000140000000a DB 0aH
	DB	00H, 00H, 00H, 014H, 00H, 00H, 00H, 01eH, 00H, 00H, 00H, '(', 00H
	DB	00H, 00H, '2', 00H, 00H, 00H, '<', 00H, 00H, 00H, 'F', 00H, 00H
	DB	00H, 'P', 00H, 00H, 00H
CONST	ENDS
;	COMDAT __ymm@0000000800000007000000060000000500000004000000030000000200000001
CONST	SEGMENT
__ymm@0000000800000007000000060000000500000004000000030000000200000001 DB 01H
	DB	00H, 00H, 00H, 02H, 00H, 00H, 00H, 03H, 00H, 00H, 00H, 04H, 00H
	DB	00H, 00H, 05H, 00H, 00H, 00H, 06H, 00H, 00H, 00H, 07H, 00H, 00H
	DB	00H, 08H, 00H, 00H, 00H
CONST	ENDS
;	COMDAT __xmm@000000280000001e000000140000000a
CONST	SEGMENT
__xmm@000000280000001e000000140000000a DB 0aH, 00H, 00H, 00H, 014H, 00H, 00H
	DB	00H, 01eH, 00H, 00H, 00H, '(', 00H, 00H, 00H
CONST	ENDS
;	COMDAT __xmm@00000004000000030000000200000001
CONST	SEGMENT
__xmm@00000004000000030000000200000001 DB 01H, 00H, 00H, 00H, 02H, 00H, 00H
	DB	00H, 03H, 00H, 00H, 00H, 04H, 00H, 00H, 00H
CONST	ENDS
;	COMDAT voltbl
voltbl	SEGMENT
_volmd	DB	03dH
	DB	043H
voltbl	ENDS
;	COMDAT xdata
xdata	SEGMENT
$unwind$main DD	020601H
	DD	030023206H
xdata	ENDS
; Function compile flags: /Ogtpy
; File Q:\Maths Town Code Projects\SIMD\Temp\msvc_svml_probe2.cpp
;	COMDAT main
_TEXT	SEGMENT
main	PROC						; COMDAT

; 6    : int main() {

$LN4:
  00000	40 53		 push	 rbx
  00002	48 83 ec 20	 sub	 rsp, 32			; 00000020H

; 7    :     __m128i a = _mm_set_epi32(40, 30, 20, 10);
; 8    :     __m128i b = _mm_set_epi32(4, 3, 2, 1);
; 9    :     __m128i c = _mm_div_epi32(a, b);
; 10   : 
; 11   :     __m256i a2 = _mm256_set_epi32(80,70,60,50,40,30,20,10);
; 12   :     __m256i b2 = _mm256_set_epi32(8,7,6,5,4,3,2,1);
; 13   :     __m256i c2 = _mm256_div_epi32(a2,b2);

  00006	c5 fe 6f 0d 00
	00 00 00	 vmovdqu ymm1, YMMWORD PTR __ymm@0000000800000007000000060000000500000004000000030000000200000001
  0000e	c5 fe 6f 05 00
	00 00 00	 vmovdqu ymm0, YMMWORD PTR __ymm@00000050000000460000003c00000032000000280000001e000000140000000a
  00016	e8 00 00 00 00	 call	 __vdecl_i32div8
  0001b	c5 fa 6f 0d 00
	00 00 00	 vmovdqu xmm1, XMMWORD PTR __xmm@00000004000000030000000200000001

; 14   : 
; 15   :     g_sink = _mm_cvtsi128_si32(c) + _mm_cvtsi128_si32(_mm256_castsi256_si128(c2));

  00023	c5 f9 7e c3	 vmovd	 ebx, xmm0
  00027	c5 fa 6f 05 00
	00 00 00	 vmovdqu xmm0, XMMWORD PTR __xmm@000000280000001e000000140000000a
  0002f	c5 f8 77	 vzeroupper
  00032	e8 00 00 00 00	 call	 __vdecl_i32div4
  00037	c5 f9 7e c0	 vmovd	 eax, xmm0
  0003b	03 d8		 add	 ebx, eax
  0003d	89 1d 00 00 00
	00		 mov	 DWORD PTR ?g_sink@@3HC, ebx ; g_sink

; 16   :     return g_sink;

  00043	8b 05 00 00 00
	00		 mov	 eax, DWORD PTR ?g_sink@@3HC ; g_sink

; 17   : }

  00049	48 83 c4 20	 add	 rsp, 32			; 00000020H
  0004d	5b		 pop	 rbx
  0004e	c3		 ret	 0
main	ENDP
_TEXT	ENDS
END
